; Function Attrs: mustprogress uwtable
define hidden void @_ZN4cvc58internal6theory11quantifiers17InstRewriterCegqi20rewriteInstantiationENS0_12NodeTemplateILb1EEERKSt6vectorIS5_SaIS5_EES5_b(ptr dead_on_unwind noalias writable sret(%"class.cvc5::internal::TrustNode") align 8 %0, ptr noundef nonnull readonly align 8 captures(none) dereferenceable(16) %1, ptr noundef readonly captures(none) %2, ptr noundef nonnull readnone align 8 captures(none) dereferenceable(24) %3, ptr noundef readonly captures(none) %4, i1 noundef zeroext %5) unnamed_addr #4 align 2 personality ptr @__gxx_personality_v0 {
  %7 = alloca %"class.cvc5::internal::NodeTemplate", align 8
  %8 = alloca %"class.cvc5::internal::NodeTemplate", align 8
  %9 = getelementptr inbounds nuw i8, ptr %1, i64 8
  %10 = load ptr, ptr %9, align 8, !tbaa !6
  %11 = load ptr, ptr %2, align 8, !tbaa !12
  store ptr %11, ptr %7, align 8, !tbaa !12
  %12 = load i64, ptr %11, align 8
  %13 = lshr i64 %12, 40
  %14 = trunc nuw nsw i64 %13 to i32
  %15 = and i32 %14, 1048575
  %16 = icmp samesign ult i32 %15, 1048574
  br i1 %16, label %17, label %22, !prof !15

17:                                               ; preds = %6
  %18 = add i64 %12, 1099511627776
  %19 = and i64 %18, 1152920405095219200
  %20 = and i64 %12, -1152920405095219201
  %21 = or disjoint i64 %19, %20
  store i64 %21, ptr %11, align 8
  br label %_ZN4cvc58internal12NodeTemplateILb1EEC2ERKS2_.exit

22:                                               ; preds = %6
  %23 = icmp eq i32 %15, 1048574
  br i1 %23, label %24, label %_ZN4cvc58internal12NodeTemplateILb1EEC2ERKS2_.exit, !prof !16

24:                                               ; preds = %22
  %25 = or i64 %12, 1152920405095219200
  store i64 %25, ptr %11, align 8
  tail call void @_ZN4cvc58internal4expr9NodeValue20markRefCountMaxedOutEv(ptr noundef nonnull align 8 dereferenceable(24) %11)
  br label %_ZN4cvc58internal12NodeTemplateILb1EEC2ERKS2_.exit

_ZN4cvc58internal12NodeTemplateILb1EEC2ERKS2_.exit: ; preds = %17, %22, %24
  %26 = load ptr, ptr %4, align 8, !tbaa !12
  store ptr %26, ptr %8, align 8, !tbaa !12
  %27 = load i64, ptr %26, align 8
  %28 = lshr i64 %27, 40
  %29 = trunc nuw nsw i64 %28 to i32
  %30 = and i32 %29, 1048575
  %31 = icmp samesign ult i32 %30, 1048574
  br i1 %31, label %32, label %37, !prof !15

32:                                               ; preds = %_ZN4cvc58internal12NodeTemplateILb1EEC2ERKS2_.exit
  %33 = add i64 %27, 1099511627776
  %34 = and i64 %33, 1152920405095219200
  %35 = and i64 %27, -1152920405095219201
  %36 = or disjoint i64 %34, %35
  store i64 %36, ptr %26, align 8
  br label %_ZN4cvc58internal12NodeTemplateILb1EEC2ERKS2_.exit6

37:                                               ; preds = %_ZN4cvc58internal12NodeTemplateILb1EEC2ERKS2_.exit
  %38 = icmp eq i32 %30, 1048574
  br i1 %38, label %39, label %_ZN4cvc58internal12NodeTemplateILb1EEC2ERKS2_.exit6, !prof !16

39:                                               ; preds = %37
  %40 = or i64 %27, 1152920405095219200
  store i64 %40, ptr %26, align 8
  invoke void @_ZN4cvc58internal4expr9NodeValue20markRefCountMaxedOutEv(ptr noundef nonnull align 8 dereferenceable(24) %26)
          to label %_ZN4cvc58internal12NodeTemplateILb1EEC2ERKS2_.exit6 unwind label %67

_ZN4cvc58internal12NodeTemplateILb1EEC2ERKS2_.exit6: ; preds = %37, %32, %39
  invoke void @_ZN4cvc58internal6theory11quantifiers17InstStrategyCegqi20rewriteInstantiationENS0_12NodeTemplateILb1EEERKSt6vectorIS5_SaIS5_EES5_b(ptr dead_on_unwind writable sret(%"class.cvc5::internal::TrustNode") align 8 %0, ptr noundef nonnull align 8 dereferenceable(560) %10, ptr nonnull poison, ptr nonnull align 8 poison, ptr noundef nonnull %8, i1 noundef zeroext %5)
          to label %41 unwind label %69

41:                                               ; preds = %_ZN4cvc58internal12NodeTemplateILb1EEC2ERKS2_.exit6
  %42 = load ptr, ptr %8, align 8, !tbaa !12
  %43 = load i64, ptr %42, align 8
  %44 = and i64 %43, 1152920405095219200
  %.not.i.i = icmp eq i64 %44, 1152920405095219200
  br i1 %.not.i.i, label %_ZN4cvc58internal12NodeTemplateILb1EED2Ev.exit, label %45, !prof !16

45:                                               ; preds = %41
  %46 = add i64 %43, 1152920405095219200
  %47 = and i64 %46, 1152920405095219200
  %48 = and i64 %43, -1152920405095219201
  %49 = or disjoint i64 %47, %48
  store i64 %49, ptr %42, align 8
  %50 = icmp eq i64 %47, 0
  br i1 %50, label %51, label %_ZN4cvc58internal12NodeTemplateILb1EED2Ev.exit, !prof !16

51:                                               ; preds = %45
  invoke void @_ZN4cvc58internal4expr9NodeValue15markForDeletionEv(ptr noundef nonnull align 8 dereferenceable(24) %42)
          to label %_ZN4cvc58internal12NodeTemplateILb1EED2Ev.exit unwind label %52

52:                                               ; preds = %51
  %53 = landingpad { ptr, i32 }
          catch ptr null
  %54 = extractvalue { ptr, i32 } %53, 0
  tail call void @__clang_call_terminate(ptr %54) #29
  unreachable

_ZN4cvc58internal12NodeTemplateILb1EED2Ev.exit:   ; preds = %41, %45, %51
  %55 = load i64, ptr %11, align 8
  %56 = and i64 %55, 1152920405095219200
  %.not.i.i7 = icmp eq i64 %56, 1152920405095219200
  br i1 %.not.i.i7, label %_ZN4cvc58internal12NodeTemplateILb1EED2Ev.exit8, label %57, !prof !16

57:                                               ; preds = %_ZN4cvc58internal12NodeTemplateILb1EED2Ev.exit
  %58 = add i64 %55, 1152920405095219200
  %59 = and i64 %58, 1152920405095219200
  %60 = and i64 %55, -1152920405095219201
  %61 = or disjoint i64 %59, %60
  store i64 %61, ptr %11, align 8
  %62 = icmp eq i64 %59, 0
  br i1 %62, label %63, label %_ZN4cvc58internal12NodeTemplateILb1EED2Ev.exit8, !prof !16

63:                                               ; preds = %57
  invoke void @_ZN4cvc58internal4expr9NodeValue15markForDeletionEv(ptr noundef nonnull align 8 dereferenceable(24) %11)
          to label %_ZN4cvc58internal12NodeTemplateILb1EED2Ev.exit8 unwind label %64

64:                                               ; preds = %63
  %65 = landingpad { ptr, i32 }
          catch ptr null
  %66 = extractvalue { ptr, i32 } %65, 0
  tail call void @__clang_call_terminate(ptr %66) #29
  unreachable

_ZN4cvc58internal12NodeTemplateILb1EED2Ev.exit8:  ; preds = %_ZN4cvc58internal12NodeTemplateILb1EED2Ev.exit, %57, %63
  ret void

67:                                               ; preds = %39
  %68 = landingpad { ptr, i32 }
          cleanup
  br label %71

69:                                               ; preds = %_ZN4cvc58internal12NodeTemplateILb1EEC2ERKS2_.exit6
  %70 = landingpad { ptr, i32 }
          cleanup
  call void @_ZN4cvc58internal12NodeTemplateILb1EED2Ev(ptr noundef nonnull align 8 dereferenceable(8) %8) #30
  br label %71

71:                                               ; preds = %69, %67
  %.pn = phi { ptr, i32 } [ %70, %69 ], [ %68, %67 ]
  call void @_ZN4cvc58internal12NodeTemplateILb1EED2Ev(ptr noundef nonnull align 8 dereferenceable(8) %7) #30
  resume { ptr, i32 } %.pn
}